target datalayout = "e-m:e-p270:32:32-p271:32:32-p272:64:64-i64:64-i128:128-f80:128-n8:16:32:64-S128"
target triple = "x86_64-pc-linux-gnu"

%struct.expert_field = type { i32, i32 }

@hf_cip_ssupervisor_cp_owners_num_entries = internal global i32 0, align 4
@hf_cip_ssupervisor_output_cp_owners_ocpunid_snn_timestamp = internal global i32 0, align 4
@hf_cip_ssupervisor_output_cp_owners_ocpunid_snn_date = internal global i32 0, align 4
@hf_cip_ssupervisor_output_cp_owners_ocpunid_snn_time = internal global i32 0, align 4
@hf_cip_ssupervisor_output_cp_owners_ocpunid_nodeid = internal global i32 0, align 4
@hf_cip_ssupervisor_cp_owners_app_path_size = internal global i32 0, align 4
@ett_path = internal global i32 0, align 4
@ett_ssupervisor_output_cp_owners = internal global i32 0, align 4
@ett_ssupervisor_output_cp_owners_ocpunid = internal global i32 0, align 4
@ett_ssupervisor_output_cp_owners_ocpunid_snn = internal global i32 0, align 4
@ei_mal_ssupervisor_cp_owners = internal global %struct.expert_field zeroinitializer, align 4
@ei_mal_ssupervisor_cp_owners_entry = internal global %struct.expert_field zeroinitializer, align 4
@ei_mal_ssupervisor_cp_owners_app_path_size = internal global %struct.expert_field zeroinitializer, align 4
@.str.440 = private unnamed_addr constant [12 x i8] c"OCPUNID SNN\00", align 1
@.str.441 = private unnamed_addr constant [23 x i8] c"Application Resource: \00", align 1

; Function Attrs: null_pointer_is_valid sspstrong uwtable
define internal i32 @dissect_s_supervisor_output_connection_point_owners(ptr noundef %0, ptr noundef %1, ptr noundef %2, ptr noundef %3, i32 noundef %4, i32 noundef %5) #0 {
  %7 = alloca i32, align 4
  %8 = alloca ptr, align 8
  %9 = alloca ptr, align 8
  %10 = alloca ptr, align 8
  %11 = alloca ptr, align 8
  %12 = alloca i32, align 4
  %13 = alloca i32, align 4
  %14 = alloca i16, align 2
  %15 = alloca i16, align 2
  %16 = alloca ptr, align 8
  %17 = alloca ptr, align 8
  %18 = alloca ptr, align 8
  %19 = alloca ptr, align 8
  %20 = alloca i32, align 4
  %21 = alloca i32, align 4
  %22 = alloca i32, align 4
  store ptr %0, ptr %8, align 8
  store ptr %1, ptr %9, align 8
  store ptr %2, ptr %10, align 8
  store ptr %3, ptr %11, align 8
  store i32 %4, ptr %12, align 4
  store i32 %5, ptr %13, align 4
  call void @llvm.lifetime.start.p0(i64 2, ptr %14) #11
  call void @llvm.lifetime.start.p0(i64 2, ptr %15) #11
  call void @llvm.lifetime.start.p0(i64 8, ptr %16) #11
  call void @llvm.lifetime.start.p0(i64 8, ptr %17) #11
  call void @llvm.lifetime.start.p0(i64 8, ptr %18) #11
  call void @llvm.lifetime.start.p0(i64 8, ptr %19) #11
  call void @llvm.lifetime.start.p0(i64 4, ptr %20) #11
  store i32 0, ptr %20, align 4
  call void @llvm.lifetime.start.p0(i64 4, ptr %21) #11
  %23 = load i32, ptr %13, align 4
  %24 = icmp slt i32 %23, 2
  br i1 %24, label %25, label %30

25:                                               ; preds = %6
  %26 = load ptr, ptr %8, align 8
  %27 = load ptr, ptr %10, align 8
  %28 = call ptr @expert_add_info(ptr noundef %26, ptr noundef %27, ptr noundef @ei_mal_ssupervisor_cp_owners)
  %29 = load i32, ptr %13, align 4
  store i32 %29, ptr %7, align 4
  store i32 1, ptr %22, align 4
  br label %130

30:                                               ; preds = %6
  %31 = load ptr, ptr %9, align 8
  %32 = load i32, ptr @hf_cip_ssupervisor_cp_owners_num_entries, align 4
  %33 = load ptr, ptr %11, align 8
  %34 = load i32, ptr %12, align 4
  %35 = call ptr @proto_tree_add_item(ptr noundef %31, i32 noundef %32, ptr noundef %33, i32 noundef %34, i32 noundef 2, i32 noundef -2147483648)
  store ptr %35, ptr %16, align 8
  %36 = load ptr, ptr %11, align 8
  %37 = load i32, ptr %12, align 4
  %38 = call zeroext i16 @tvb_get_letohs(ptr noundef %36, i32 noundef %37)
  store i16 %38, ptr %15, align 2
  %39 = load i32, ptr %20, align 4
  %40 = add i32 %39, 2
  store i32 %40, ptr %20, align 4
  %41 = load i16, ptr %15, align 2
  %42 = zext i16 %41 to i32
  %43 = icmp sgt i32 %42, 0
  br i1 %43, label %44, label %128

44:                                               ; preds = %30
  %45 = load ptr, ptr %16, align 8
  %46 = load i32, ptr @ett_ssupervisor_output_cp_owners, align 4
  %47 = call ptr @proto_item_add_subtree(ptr noundef %45, i32 noundef %46)
  store ptr %47, ptr %18, align 8
  store i16 0, ptr %14, align 2
  br label %48

48:                                               ; preds = %124, %44
  %49 = load i16, ptr %14, align 2
  %50 = zext i16 %49 to i32
  %51 = load i16, ptr %15, align 2
  %52 = zext i16 %51 to i32
  %53 = icmp slt i32 %50, %52
  br i1 %53, label %54, label %127

54:                                               ; preds = %48
  %55 = load i32, ptr %13, align 4
  %56 = load i32, ptr %20, align 4
  %57 = add i32 %56, 11
  %58 = icmp slt i32 %55, %57
  br i1 %58, label %59, label %64

59:                                               ; preds = %54
  %60 = load ptr, ptr %8, align 8
  %61 = load ptr, ptr %10, align 8
  %62 = call ptr @expert_add_info(ptr noundef %60, ptr noundef %61, ptr noundef @ei_mal_ssupervisor_cp_owners_entry)
  %63 = load i32, ptr %13, align 4
  store i32 %63, ptr %7, align 4
  store i32 1, ptr %22, align 4
  br label %130

64:                                               ; preds = %54
  %65 = load ptr, ptr %11, align 8
  %66 = load ptr, ptr %8, align 8
  %67 = load i32, ptr %12, align 4
  %68 = load i32, ptr %20, align 4
  %69 = add i32 %67, %68
  %70 = load ptr, ptr %16, align 8
  %71 = load i32, ptr @hf_cip_ssupervisor_output_cp_owners_ocpunid_snn_timestamp, align 4
  %72 = load i32, ptr @hf_cip_ssupervisor_output_cp_owners_ocpunid_snn_date, align 4
  %73 = load i32, ptr @hf_cip_ssupervisor_output_cp_owners_ocpunid_snn_time, align 4
  %74 = load i32, ptr @hf_cip_ssupervisor_output_cp_owners_ocpunid_nodeid, align 4
  %75 = load i32, ptr @ett_ssupervisor_output_cp_owners_ocpunid, align 4
  %76 = load i32, ptr @ett_ssupervisor_output_cp_owners_ocpunid_snn, align 4
  call void @dissect_unid(ptr noundef %65, ptr noundef %66, i32 noundef %69, ptr noundef %70, ptr noundef @.str.440, i32 noundef %71, i32 noundef %72, i32 noundef %73, i32 noundef %74, i32 noundef %75, i32 noundef %76)
  %77 = load i32, ptr %20, align 4
  %78 = add i32 %77, 10
  store i32 %78, ptr %20, align 4
  %79 = load ptr, ptr %18, align 8
  %80 = load i32, ptr @hf_cip_ssupervisor_cp_owners_app_path_size, align 4
  %81 = load ptr, ptr %11, align 8
  %82 = load i32, ptr %12, align 4
  %83 = load i32, ptr %20, align 4
  %84 = add i32 %82, %83
  %85 = call ptr @proto_tree_add_item(ptr noundef %79, i32 noundef %80, ptr noundef %81, i32 noundef %84, i32 noundef 1, i32 noundef -2147483648)
  %86 = load ptr, ptr %11, align 8
  %87 = load i32, ptr %12, align 4
  %88 = load i32, ptr %20, align 4
  %89 = add i32 %87, %88
  %90 = call zeroext i8 @tvb_get_uint8(ptr noundef %86, i32 noundef %89)
  %91 = zext i8 %90 to i32
  store i32 %91, ptr %21, align 4
  %92 = load i32, ptr %20, align 4
  %93 = add i32 %92, 1
  store i32 %93, ptr %20, align 4
  %94 = load i32, ptr %13, align 4
  %95 = load i32, ptr %20, align 4
  %96 = load i32, ptr %21, align 4
  %97 = add i32 %95, %96
  %98 = icmp slt i32 %94, %97
  br i1 %98, label %99, label %104

99:                                               ; preds = %64
  %100 = load ptr, ptr %8, align 8
  %101 = load ptr, ptr %10, align 8
  %102 = call ptr @expert_add_info(ptr noundef %100, ptr noundef %101, ptr noundef @ei_mal_ssupervisor_cp_owners_app_path_size)
  %103 = load i32, ptr %13, align 4
  store i32 %103, ptr %7, align 4
  store i32 1, ptr %22, align 4
  br label %130

104:                                              ; preds = %64
  %105 = load ptr, ptr %18, align 8
  %106 = load ptr, ptr %11, align 8
  %107 = load i32, ptr %12, align 4
  %108 = load i32, ptr %20, align 4
  %109 = add i32 %107, %108
  %110 = load i32, ptr %21, align 4
  %111 = load i32, ptr @ett_path, align 4
  %112 = call ptr @proto_tree_add_subtree(ptr noundef %105, ptr noundef %106, i32 noundef %109, i32 noundef %110, i32 noundef %111, ptr noundef %17, ptr noundef @.str.441)
  store ptr %112, ptr %19, align 8
  %113 = load ptr, ptr %11, align 8
  %114 = load ptr, ptr %8, align 8
  %115 = load ptr, ptr %19, align 8
  %116 = load ptr, ptr %17, align 8
  %117 = load i32, ptr %12, align 4
  %118 = load i32, ptr %20, align 4
  %119 = add i32 %117, %118
  %120 = load i32, ptr %21, align 4
  call void @dissect_epath(ptr noundef %113, ptr noundef %114, ptr noundef %115, ptr noundef %116, i32 noundef %119, i32 noundef %120, i1 noundef zeroext false, i1 noundef zeroext true, ptr noundef null, ptr noundef null, i32 noundef 0, ptr noundef null, i1 noundef zeroext false)
  %121 = load i32, ptr %21, align 4
  %122 = load i32, ptr %20, align 4
  %123 = add i32 %122, %121
  store i32 %123, ptr %20, align 4
  br label %124

124:                                              ; preds = %104
  %125 = load i16, ptr %14, align 2
  %126 = add i16 %125, 1
  store i16 %126, ptr %14, align 2
  br label %48, !llvm.loop !6

127:                                              ; preds = %48
  br label %128

128:                                              ; preds = %127, %30
  %129 = load i32, ptr %20, align 4
  store i32 %129, ptr %7, align 4
  store i32 1, ptr %22, align 4
  br label %130

130:                                              ; preds = %128, %99, %59, %25
  call void @llvm.lifetime.end.p0(i64 4, ptr %21) #11
  call void @llvm.lifetime.end.p0(i64 4, ptr %20) #11
  call void @llvm.lifetime.end.p0(i64 8, ptr %19) #11
  call void @llvm.lifetime.end.p0(i64 8, ptr %18) #11
  call void @llvm.lifetime.end.p0(i64 8, ptr %17) #11
  call void @llvm.lifetime.end.p0(i64 8, ptr %16) #11
  call void @llvm.lifetime.end.p0(i64 2, ptr %15) #11
  call void @llvm.lifetime.end.p0(i64 2, ptr %14) #11
  %131 = load i32, ptr %7, align 4
  ret i32 %131
}