; Function Attrs: null_pointer_is_valid sspstrong uwtable
define internal i32 @dissect_s_supervisor_output_connection_point_owners(ptr noundef %0, ptr noundef %1, ptr noundef %2, ptr noundef %3, i32 noundef %4, i32 noundef %5) #2 {
  %7 = alloca ptr, align 8
  call void @llvm.lifetime.start.p0(i64 8, ptr nonnull %7) #7
  %8 = icmp slt i32 %5, 2
  br i1 %8, label %9, label %11

9:                                                ; preds = %6
  %10 = tail call ptr @expert_add_info(ptr noundef %0, ptr noundef %2, ptr noundef nonnull @ei_mal_ssupervisor_cp_owners)
  br label %.loopexit

11:                                               ; preds = %6
  %12 = load i32, ptr @hf_cip_ssupervisor_cp_owners_num_entries, align 4
  %13 = tail call ptr @proto_tree_add_item(ptr noundef %1, i32 noundef %12, ptr noundef %3, i32 noundef %4, i32 noundef 2, i32 noundef -2147483648)
  %14 = tail call zeroext i16 @tvb_get_letohs(ptr noundef %3, i32 noundef %4)
  %.not = icmp eq i16 %14, 0
  br i1 %.not, label %.loopexit, label %15

15:                                               ; preds = %11
  %16 = load i32, ptr @ett_ssupervisor_output_cp_owners, align 4
  %17 = tail call ptr @proto_item_add_subtree(ptr noundef %13, i32 noundef %16)
  %18 = add i32 %4, 10
  br label %19

19:                                               ; preds = %15, %41
  %.163 = phi i32 [ 2, %15 ], [ %37, %41 ]
  %.05562 = phi i16 [ 0, %15 ], [ %46, %41 ]
  %20 = add i32 %.163, 11
  %21 = icmp slt i32 %5, %20
  br i1 %21, label %22, label %24

22:                                               ; preds = %19
  %23 = call ptr @expert_add_info(ptr noundef %0, ptr noundef %2, ptr noundef nonnull @ei_mal_ssupervisor_cp_owners_entry)
  br label %.loopexit

24:                                               ; preds = %19
  %25 = add i32 %.163, %4
  %26 = load i32, ptr @hf_cip_ssupervisor_output_cp_owners_ocpunid_snn_timestamp, align 4
  %27 = load i32, ptr @hf_cip_ssupervisor_output_cp_owners_ocpunid_snn_date, align 4
  %28 = load i32, ptr @hf_cip_ssupervisor_output_cp_owners_ocpunid_snn_time, align 4
  %29 = load i32, ptr @hf_cip_ssupervisor_output_cp_owners_ocpunid_nodeid, align 4
  %30 = load i32, ptr @ett_ssupervisor_output_cp_owners_ocpunid, align 4
  %31 = load i32, ptr @ett_ssupervisor_output_cp_owners_ocpunid_snn, align 4
  call void @dissect_unid(ptr noundef %3, ptr poison, i32 noundef %25, ptr noundef %13, ptr noundef nonnull @.str.440, i32 noundef %26, i32 noundef %27, i32 noundef %28, i32 noundef %29, i32 noundef %30, i32 noundef %31)
  %32 = load i32, ptr @hf_cip_ssupervisor_cp_owners_app_path_size, align 4
  %33 = add i32 %18, %.163
  %34 = call ptr @proto_tree_add_item(ptr noundef %17, i32 noundef %32, ptr noundef %3, i32 noundef %33, i32 noundef 1, i32 noundef -2147483648)
  %35 = call zeroext i8 @tvb_get_uint8(ptr noundef %3, i32 noundef %33)
  %36 = zext i8 %35 to i32
  %37 = add i32 %20, %36
  %38 = icmp slt i32 %5, %37
  br i1 %38, label %39, label %41

39:                                               ; preds = %24
  %40 = call ptr @expert_add_info(ptr noundef %0, ptr noundef %2, ptr noundef nonnull @ei_mal_ssupervisor_cp_owners_app_path_size)
  br label %.loopexit

41:                                               ; preds = %24
  %42 = add i32 %20, %4
  %43 = load i32, ptr @ett_path, align 4
  %44 = call ptr @proto_tree_add_subtree(ptr noundef %17, ptr noundef %3, i32 noundef %42, i32 noundef %36, i32 noundef %43, ptr noundef nonnull %7, ptr noundef nonnull @.str.441)
  %45 = load ptr, ptr %7, align 8
  call void @dissect_epath(ptr noundef %3, ptr noundef %0, ptr noundef %44, ptr noundef %45, i32 noundef %42, i32 noundef %36, i1 noundef zeroext false, i1 noundef zeroext true, ptr noundef null, ptr noundef null, i32 noundef 0, ptr noundef null, i1 noundef zeroext false)
  %46 = add nuw i16 %.05562, 1
  %exitcond.not = icmp eq i16 %46, %14
  br i1 %exitcond.not, label %.loopexit, label %19, !llvm.loop !6

.loopexit:                                        ; preds = %41, %11, %39, %22, %9
  %.0 = phi i32 [ %5, %9 ], [ %5, %22 ], [ %5, %39 ], [ 2, %11 ], [ %37, %41 ]
  call void @llvm.lifetime.end.p0(i64 8, ptr nonnull %7) #7
  ret i32 %.0
}